; Function Attrs: mustprogress uwtable
define void @_ZN5folly11RequestData20releaseRefDeleteOnlyEv(ptr noundef nonnull align 8 dereferenceable(12) %0) local_unnamed_addr #7 align 2 personality ptr @__gxx_personality_v0 {
  %2 = getelementptr inbounds nuw i8, ptr %0, i64 8
  %3 = atomicrmw sub ptr %2, i32 1 acq_rel, align 4
  %.not = icmp eq i32 %3, 1
  br i1 %.not, label %4, label %8

4:                                                ; preds = %1
  %5 = load ptr, ptr %0, align 8, !tbaa !135
  %6 = getelementptr inbounds nuw i8, ptr %5, i64 8
  %7 = load ptr, ptr %6, align 8
  tail call void %7(ptr noundef nonnull align 8 dereferenceable(12) %0) #10
  br label %8

8:                                                ; preds = %4, %1
  ret void
}